target datalayout = "e-m:e-p270:32:32-p271:32:32-p272:64:64-i64:64-i128:128-f80:128-n8:16:32:64-S128"
target triple = "x86_64-pc-linux-gnu"

%struct.expert_field = type { i32, i32 }

@hf_gmhdr_srcport_g = internal global i32 0, align 4
@hf_gmhdr_srcport_g_plfm = internal global i32 0, align 4
@hf_gmhdr_srcport_g_gid = internal global i32 0, align 4
@hf_gmhdr_srcport_g_bid = internal global i32 0, align 4
@hf_gmhdr_srcport_g_pid = internal global i32 0, align 4
@hf_gmhdr_pktsize = internal global i32 0, align 4
@hf_gmhdr_timestamp = internal global i32 0, align 4
@hf_gmhdr_generic = internal global i32 0, align 4
@hf_gmhdr_origcrc = internal global i32 0, align 4
@hf_gmhdr_srcport_h = internal global i32 0, align 4
@hf_gmhdr_srcport_h_plfm = internal global i32 0, align 4
@hf_gmhdr_srcport_h_gid = internal global i32 0, align 4
@hf_gmhdr_srcport_h_bid = internal global i32 0, align 4
@hf_gmhdr_srcport_h_sid = internal global i32 0, align 4
@hf_gmhdr_srcport_h_pid = internal global i32 0, align 4
@ett_srcport = internal global i32 0, align 4
@ei_gmhdr_field_length_invalid = internal global %struct.expert_field zeroinitializer, align 4
@.str.87 = private unnamed_addr constant [24 x i8] c"Field length %u invalid\00", align 1
@.str.88 = private unnamed_addr constant [7 x i8] c" (g%d)\00", align 1
@.str.89 = private unnamed_addr constant [13 x i8] c"; Source: %s\00", align 1
@.str.90 = private unnamed_addr constant [8 x i8] c"Unknown\00", align 1
@.str.91 = private unnamed_addr constant [21 x i8] c", CRC (Not Verified)\00", align 1
@.str.92 = private unnamed_addr constant [22 x i8] c" [Id: %u, Length: %u]\00", align 1

; Function Attrs: null_pointer_is_valid sspstrong uwtable
define internal void @dissect_gmtlv(ptr noundef %0, ptr noundef %1, ptr noundef %2, i32 noundef %3, i16 noundef zeroext %4) #0 {
  %6 = alloca ptr, align 8
  %7 = alloca ptr, align 8
  %8 = alloca ptr, align 8
  %9 = alloca i32, align 4
  %10 = alloca i16, align 2
  %11 = alloca ptr, align 8
  %12 = alloca ptr, align 8
  %13 = alloca i16, align 2
  %14 = alloca i16, align 2
  %15 = alloca i16, align 2
  %16 = alloca i32, align 4
  %17 = alloca i32, align 4
  store ptr %0, ptr %6, align 8
  store ptr %1, ptr %7, align 8
  store ptr %2, ptr %8, align 8
  store i32 %3, ptr %9, align 4
  store i16 %4, ptr %10, align 2
  call void @llvm.lifetime.start.p0(i64 8, ptr %11) #5
  call void @llvm.lifetime.start.p0(i64 8, ptr %12) #5
  call void @llvm.lifetime.start.p0(i64 2, ptr %13) #5
  br label %18

18:                                               ; preds = %238, %5
  %19 = load i16, ptr %10, align 2
  %20 = zext i16 %19 to i32
  %21 = icmp sgt i32 %20, 1
  br i1 %21, label %22, label %249

22:                                               ; preds = %18
  call void @llvm.lifetime.start.p0(i64 2, ptr %14) #5
  %23 = load ptr, ptr %6, align 8
  %24 = load i32, ptr %9, align 4
  %25 = call zeroext i16 @tvb_get_ntohs(ptr noundef %23, i32 noundef %24)
  store i16 %25, ptr %14, align 2
  %26 = load i32, ptr %9, align 4
  %27 = add i32 %26, 2
  store i32 %27, ptr %9, align 4
  %28 = load i16, ptr %10, align 2
  %29 = zext i16 %28 to i32
  %30 = sub i32 %29, 2
  %31 = trunc i32 %30 to i16
  store i16 %31, ptr %10, align 2
  %32 = load i16, ptr %14, align 2
  %33 = zext i16 %32 to i32
  %34 = and i32 %33, 255
  %35 = trunc i32 %34 to i16
  store i16 %35, ptr %13, align 2
  %36 = load i16, ptr %14, align 2
  %37 = zext i16 %36 to i32
  %38 = ashr i32 %37, 8
  switch i32 %38, label %224 [
    i32 2, label %39
    i32 1, label %110
    i32 3, label %128
    i32 4, label %128
    i32 5, label %128
    i32 6, label %128
    i32 7, label %151
    i32 8, label %168
  ]

39:                                               ; preds = %22
  call void @llvm.lifetime.start.p0(i64 2, ptr %15) #5
  call void @llvm.lifetime.start.p0(i64 4, ptr %16) #5
  %40 = load ptr, ptr %6, align 8
  %41 = load i32, ptr %9, align 4
  %42 = call i32 @tvb_get_ntohl(ptr noundef %40, i32 noundef %41)
  %43 = lshr i32 %42, 8
  store i32 %43, ptr %16, align 4
  %44 = load i16, ptr %13, align 2
  %45 = zext i16 %44 to i32
  %46 = icmp ne i32 %45, 3
  br i1 %46, label %47, label %53

47:                                               ; preds = %39
  %48 = load ptr, ptr %7, align 8
  %49 = load ptr, ptr %8, align 8
  %50 = load i16, ptr %13, align 2
  %51 = zext i16 %50 to i32
  %52 = call ptr (ptr, ptr, ptr, ptr, ...) @expert_add_info_format(ptr noundef %48, ptr noundef %49, ptr noundef @ei_gmhdr_field_length_invalid, ptr noundef @.str.87, i32 noundef %51)
  store i32 4, ptr %17, align 4
  br label %109

53:                                               ; preds = %39
  %54 = load ptr, ptr %8, align 8
  %55 = load i32, ptr @hf_gmhdr_srcport_g, align 4
  %56 = load ptr, ptr %6, align 8
  %57 = load i32, ptr %9, align 4
  %58 = load i16, ptr %13, align 2
  %59 = zext i16 %58 to i32
  %60 = call ptr @proto_tree_add_item(ptr noundef %54, i32 noundef %55, ptr noundef %56, i32 noundef %57, i32 noundef %59, i32 noundef 0)
  store ptr %60, ptr %11, align 8
  %61 = load ptr, ptr %11, align 8
  %62 = load i32, ptr @ett_srcport, align 4
  %63 = call ptr @proto_item_add_subtree(ptr noundef %61, i32 noundef %62)
  store ptr %63, ptr %12, align 8
  %64 = load ptr, ptr %12, align 8
  %65 = load i32, ptr @hf_gmhdr_srcport_g_plfm, align 4
  %66 = load ptr, ptr %6, align 8
  %67 = load i32, ptr %9, align 4
  %68 = load i16, ptr %13, align 2
  %69 = zext i16 %68 to i32
  %70 = call ptr @proto_tree_add_item(ptr noundef %64, i32 noundef %65, ptr noundef %66, i32 noundef %67, i32 noundef %69, i32 noundef 0)
  %71 = load ptr, ptr %12, align 8
  %72 = load i32, ptr @hf_gmhdr_srcport_g_gid, align 4
  %73 = load ptr, ptr %6, align 8
  %74 = load i32, ptr %9, align 4
  %75 = load i16, ptr %13, align 2
  %76 = zext i16 %75 to i32
  %77 = call ptr @proto_tree_add_item(ptr noundef %71, i32 noundef %72, ptr noundef %73, i32 noundef %74, i32 noundef %76, i32 noundef 0)
  %78 = load ptr, ptr %12, align 8
  %79 = load i32, ptr @hf_gmhdr_srcport_g_bid, align 4
  %80 = load ptr, ptr %6, align 8
  %81 = load i32, ptr %9, align 4
  %82 = load i16, ptr %13, align 2
  %83 = zext i16 %82 to i32
  %84 = call ptr @proto_tree_add_item(ptr noundef %78, i32 noundef %79, ptr noundef %80, i32 noundef %81, i32 noundef %83, i32 noundef 0)
  %85 = load ptr, ptr %12, align 8
  %86 = load i32, ptr @hf_gmhdr_srcport_g_pid, align 4
  %87 = load ptr, ptr %6, align 8
  %88 = load i32, ptr %9, align 4
  %89 = load i16, ptr %13, align 2
  %90 = zext i16 %89 to i32
  %91 = call ptr @proto_tree_add_item(ptr noundef %85, i32 noundef %86, ptr noundef %87, i32 noundef %88, i32 noundef %90, i32 noundef 0)
  store ptr %91, ptr %11, align 8
  %92 = load i32, ptr %16, align 4
  %93 = and i32 %92, 1023
  %94 = lshr i32 %93, 0
  %95 = sub i32 %94, 24
  %96 = trunc i32 %95 to i16
  store i16 %96, ptr %15, align 2
  %97 = load i16, ptr %15, align 2
  %98 = zext i16 %97 to i32
  %99 = icmp sge i32 %98, 1
  br i1 %99, label %100, label %108

100:                                              ; preds = %53
  %101 = load i16, ptr %15, align 2
  %102 = zext i16 %101 to i32
  %103 = icmp sle i32 %102, 4
  br i1 %103, label %104, label %108

104:                                              ; preds = %100
  %105 = load ptr, ptr %11, align 8
  %106 = load i16, ptr %15, align 2
  %107 = zext i16 %106 to i32
  call void (ptr, ptr, ...) @proto_item_append_text(ptr noundef %105, ptr noundef @.str.88, i32 noundef %107)
  br label %108

108:                                              ; preds = %104, %100, %53
  store i32 4, ptr %17, align 4
  br label %109

109:                                              ; preds = %108, %47
  call void @llvm.lifetime.end.p0(i64 4, ptr %16) #5
  call void @llvm.lifetime.end.p0(i64 2, ptr %15) #5
  br label %238

110:                                              ; preds = %22
  %111 = load i16, ptr %13, align 2
  %112 = zext i16 %111 to i32
  %113 = icmp ne i32 %112, 2
  br i1 %113, label %114, label %120

114:                                              ; preds = %110
  %115 = load ptr, ptr %7, align 8
  %116 = load ptr, ptr %8, align 8
  %117 = load i16, ptr %13, align 2
  %118 = zext i16 %117 to i32
  %119 = call ptr (ptr, ptr, ptr, ptr, ...) @expert_add_info_format(ptr noundef %115, ptr noundef %116, ptr noundef @ei_gmhdr_field_length_invalid, ptr noundef @.str.87, i32 noundef %118)
  br label %238

120:                                              ; preds = %110
  %121 = load ptr, ptr %8, align 8
  %122 = load i32, ptr @hf_gmhdr_pktsize, align 4
  %123 = load ptr, ptr %6, align 8
  %124 = load i32, ptr %9, align 4
  %125 = load i16, ptr %13, align 2
  %126 = zext i16 %125 to i32
  %127 = call ptr @proto_tree_add_item(ptr noundef %121, i32 noundef %122, ptr noundef %123, i32 noundef %124, i32 noundef %126, i32 noundef 0)
  br label %238

128:                                              ; preds = %22, %22, %22, %22
  %129 = load i16, ptr %13, align 2
  %130 = zext i16 %129 to i32
  %131 = icmp ne i32 %130, 8
  br i1 %131, label %132, label %138

132:                                              ; preds = %128
  %133 = load ptr, ptr %7, align 8
  %134 = load ptr, ptr %8, align 8
  %135 = load i16, ptr %13, align 2
  %136 = zext i16 %135 to i32
  %137 = call ptr (ptr, ptr, ptr, ptr, ...) @expert_add_info_format(ptr noundef %133, ptr noundef %134, ptr noundef @ei_gmhdr_field_length_invalid, ptr noundef @.str.87, i32 noundef %136)
  br label %238

138:                                              ; preds = %128
  %139 = load ptr, ptr %8, align 8
  %140 = load i32, ptr @hf_gmhdr_timestamp, align 4
  %141 = load ptr, ptr %6, align 8
  %142 = load i32, ptr %9, align 4
  %143 = load i16, ptr %13, align 2
  %144 = zext i16 %143 to i32
  %145 = call ptr @proto_tree_add_item(ptr noundef %139, i32 noundef %140, ptr noundef %141, i32 noundef %142, i32 noundef %144, i32 noundef 0)
  store ptr %145, ptr %11, align 8
  %146 = load ptr, ptr %11, align 8
  %147 = load i16, ptr %14, align 2
  %148 = zext i16 %147 to i32
  %149 = ashr i32 %148, 8
  %150 = call ptr @val_to_str_const(i32 noundef %149, ptr noundef @gmhdr_ftype_timestamp, ptr noundef @.str.90)
  call void (ptr, ptr, ...) @proto_item_append_text(ptr noundef %146, ptr noundef @.str.89, ptr noundef %150)
  br label %238

151:                                              ; preds = %22
  %152 = load i16, ptr %13, align 2
  %153 = zext i16 %152 to i32
  %154 = icmp ne i32 %153, 4
  br i1 %154, label %155, label %161

155:                                              ; preds = %151
  %156 = load ptr, ptr %7, align 8
  %157 = load ptr, ptr %8, align 8
  %158 = load i16, ptr %13, align 2
  %159 = zext i16 %158 to i32
  %160 = call ptr (ptr, ptr, ptr, ptr, ...) @expert_add_info_format(ptr noundef %156, ptr noundef %157, ptr noundef @ei_gmhdr_field_length_invalid, ptr noundef @.str.87, i32 noundef %159)
  br label %238

161:                                              ; preds = %151
  %162 = load ptr, ptr %8, align 8
  %163 = load i32, ptr @hf_gmhdr_origcrc, align 4
  %164 = load ptr, ptr %6, align 8
  %165 = load i32, ptr %9, align 4
  %166 = call ptr @proto_tree_add_item(ptr noundef %162, i32 noundef %163, ptr noundef %164, i32 noundef %165, i32 noundef 4, i32 noundef 0)
  store ptr %166, ptr %11, align 8
  %167 = load ptr, ptr %11, align 8
  call void (ptr, ptr, ...) @proto_item_append_text(ptr noundef %167, ptr noundef @.str.91)
  br label %238

168:                                              ; preds = %22
  %169 = load i16, ptr %13, align 2
  %170 = zext i16 %169 to i32
  %171 = icmp ne i32 %170, 4
  br i1 %171, label %172, label %178

172:                                              ; preds = %168
  %173 = load ptr, ptr %7, align 8
  %174 = load ptr, ptr %8, align 8
  %175 = load i16, ptr %13, align 2
  %176 = zext i16 %175 to i32
  %177 = call ptr (ptr, ptr, ptr, ptr, ...) @expert_add_info_format(ptr noundef %173, ptr noundef %174, ptr noundef @ei_gmhdr_field_length_invalid, ptr noundef @.str.87, i32 noundef %176)
  br label %238

178:                                              ; preds = %168
  %179 = load ptr, ptr %8, align 8
  %180 = load i32, ptr @hf_gmhdr_srcport_h, align 4
  %181 = load ptr, ptr %6, align 8
  %182 = load i32, ptr %9, align 4
  %183 = load i16, ptr %13, align 2
  %184 = zext i16 %183 to i32
  %185 = call ptr @proto_tree_add_item(ptr noundef %179, i32 noundef %180, ptr noundef %181, i32 noundef %182, i32 noundef %184, i32 noundef 0)
  store ptr %185, ptr %11, align 8
  %186 = load ptr, ptr %11, align 8
  %187 = load i32, ptr @ett_srcport, align 4
  %188 = call ptr @proto_item_add_subtree(ptr noundef %186, i32 noundef %187)
  store ptr %188, ptr %12, align 8
  %189 = load ptr, ptr %12, align 8
  %190 = load i32, ptr @hf_gmhdr_srcport_h_plfm, align 4
  %191 = load ptr, ptr %6, align 8
  %192 = load i32, ptr %9, align 4
  %193 = load i16, ptr %13, align 2
  %194 = zext i16 %193 to i32
  %195 = call ptr @proto_tree_add_item(ptr noundef %189, i32 noundef %190, ptr noundef %191, i32 noundef %192, i32 noundef %194, i32 noundef 0)
  %196 = load ptr, ptr %12, align 8
  %197 = load i32, ptr @hf_gmhdr_srcport_h_gid, align 4
  %198 = load ptr, ptr %6, align 8
  %199 = load i32, ptr %9, align 4
  %200 = load i16, ptr %13, align 2
  %201 = zext i16 %200 to i32
  %202 = call ptr @proto_tree_add_item(ptr noundef %196, i32 noundef %197, ptr noundef %198, i32 noundef %199, i32 noundef %201, i32 noundef 0)
  %203 = load ptr, ptr %12, align 8
  %204 = load i32, ptr @hf_gmhdr_srcport_h_bid, align 4
  %205 = load ptr, ptr %6, align 8
  %206 = load i32, ptr %9, align 4
  %207 = load i16, ptr %13, align 2
  %208 = zext i16 %207 to i32
  %209 = call ptr @proto_tree_add_item(ptr noundef %203, i32 noundef %204, ptr noundef %205, i32 noundef %206, i32 noundef %208, i32 noundef 0)
  %210 = load ptr, ptr %12, align 8
  %211 = load i32, ptr @hf_gmhdr_srcport_h_sid, align 4
  %212 = load ptr, ptr %6, align 8
  %213 = load i32, ptr %9, align 4
  %214 = load i16, ptr %13, align 2
  %215 = zext i16 %214 to i32
  %216 = call ptr @proto_tree_add_item(ptr noundef %210, i32 noundef %211, ptr noundef %212, i32 noundef %213, i32 noundef %215, i32 noundef 0)
  %217 = load ptr, ptr %12, align 8
  %218 = load i32, ptr @hf_gmhdr_srcport_h_pid, align 4
  %219 = load ptr, ptr %6, align 8
  %220 = load i32, ptr %9, align 4
  %221 = load i16, ptr %13, align 2
  %222 = zext i16 %221 to i32
  %223 = call ptr @proto_tree_add_item(ptr noundef %217, i32 noundef %218, ptr noundef %219, i32 noundef %220, i32 noundef %222, i32 noundef 0)
  br label %238

224:                                              ; preds = %22
  %225 = load ptr, ptr %8, align 8
  %226 = load i32, ptr @hf_gmhdr_generic, align 4
  %227 = load ptr, ptr %6, align 8
  %228 = load i32, ptr %9, align 4
  %229 = load i16, ptr %13, align 2
  %230 = zext i16 %229 to i32
  %231 = call ptr @proto_tree_add_item(ptr noundef %225, i32 noundef %226, ptr noundef %227, i32 noundef %228, i32 noundef %230, i32 noundef 0)
  store ptr %231, ptr %11, align 8
  %232 = load ptr, ptr %11, align 8
  %233 = load i16, ptr %14, align 2
  %234 = zext i16 %233 to i32
  %235 = ashr i32 %234, 8
  %236 = load i16, ptr %13, align 2
  %237 = zext i16 %236 to i32
  call void (ptr, ptr, ...) @proto_item_append_text(ptr noundef %232, ptr noundef @.str.92, i32 noundef %235, i32 noundef %237)
  br label %238

238:                                              ; preds = %224, %178, %172, %161, %155, %138, %132, %120, %114, %109
  %239 = load i16, ptr %13, align 2
  %240 = zext i16 %239 to i32
  %241 = load i32, ptr %9, align 4
  %242 = add i32 %241, %240
  store i32 %242, ptr %9, align 4
  %243 = load i16, ptr %13, align 2
  %244 = zext i16 %243 to i32
  %245 = load i16, ptr %10, align 2
  %246 = zext i16 %245 to i32
  %247 = sub i32 %246, %244
  %248 = trunc i32 %247 to i16
  store i16 %248, ptr %10, align 2
  call void @llvm.lifetime.end.p0(i64 2, ptr %14) #5
  br label %18, !llvm.loop !8

249:                                              ; preds = %18
  call void @llvm.lifetime.end.p0(i64 2, ptr %13) #5
  call void @llvm.lifetime.end.p0(i64 8, ptr %12) #5
  call void @llvm.lifetime.end.p0(i64 8, ptr %11) #5
  ret void
}