; Function Attrs: null_pointer_is_valid sspstrong uwtable
define internal fastcc void @dissect_gmtlv(ptr noundef %0, ptr noundef %1, ptr noundef %2, i32 noundef range(i32 0, 2) %3, i16 noundef zeroext range(i16 -1, 256) %4) unnamed_addr #0 {
  %6 = icmp ugt i16 %4, 1
  br i1 %6, label %.lr.ph, label %._crit_edge

.lr.ph:                                           ; preds = %5, %83
  %.0122 = phi i32 [ %85, %83 ], [ %3, %5 ]
  %.0106121 = phi i16 [ %86, %83 ], [ %4, %5 ]
  %7 = tail call zeroext i16 @tvb_get_ntohs(ptr noundef %0, i32 noundef %.0122)
  %8 = add i32 %.0122, 2
  %9 = add i16 %.0106121, -2
  %10 = and i16 %7, 255
  %11 = lshr i16 %7, 8
  %12 = zext nneg i16 %11 to i32
  %trunc = trunc nuw i16 %11 to i8
  switch i8 %trunc, label %79 [
    i8 2, label %13
    i8 1, label %38
    i8 3, label %45
    i8 4, label %45
    i8 5, label %45
    i8 6, label %45
    i8 7, label %53
    i8 8, label %60
  ]

13:                                               ; preds = %.lr.ph
  %14 = tail call i32 @tvb_get_ntohl(ptr noundef %0, i32 noundef %8)
  %.not120 = icmp eq i16 %10, 3
  br i1 %.not120, label %18, label %15

15:                                               ; preds = %13
  %16 = zext nneg i16 %10 to i32
  %17 = tail call ptr (ptr, ptr, ptr, ptr, ...) @expert_add_info_format(ptr noundef %1, ptr noundef %2, ptr noundef nonnull @ei_gmhdr_field_length_invalid, ptr noundef nonnull @.str.87, i32 noundef %16)
  br label %83

18:                                               ; preds = %13
  %19 = lshr i32 %14, 8
  %20 = load i32, ptr @hf_gmhdr_srcport_g, align 4
  %21 = tail call ptr @proto_tree_add_item(ptr noundef %2, i32 noundef %20, ptr noundef %0, i32 noundef %8, i32 noundef 3, i32 noundef 0)
  %22 = load i32, ptr @ett_srcport, align 4
  %23 = tail call ptr @proto_item_add_subtree(ptr noundef %21, i32 noundef %22)
  %24 = load i32, ptr @hf_gmhdr_srcport_g_plfm, align 4
  %25 = tail call ptr @proto_tree_add_item(ptr noundef %23, i32 noundef %24, ptr noundef %0, i32 noundef %8, i32 noundef 3, i32 noundef 0)
  %26 = load i32, ptr @hf_gmhdr_srcport_g_gid, align 4
  %27 = tail call ptr @proto_tree_add_item(ptr noundef %23, i32 noundef %26, ptr noundef %0, i32 noundef %8, i32 noundef 3, i32 noundef 0)
  %28 = load i32, ptr @hf_gmhdr_srcport_g_bid, align 4
  %29 = tail call ptr @proto_tree_add_item(ptr noundef %23, i32 noundef %28, ptr noundef %0, i32 noundef %8, i32 noundef 3, i32 noundef 0)
  %30 = load i32, ptr @hf_gmhdr_srcport_g_pid, align 4
  %31 = tail call ptr @proto_tree_add_item(ptr noundef %23, i32 noundef %30, ptr noundef %0, i32 noundef %8, i32 noundef 3, i32 noundef 0)
  %32 = and i32 %19, 1023
  %33 = add nuw nsw i32 %32, 65512
  %34 = and i32 %33, 65535
  %35 = icmp ne i32 %32, 24
  %36 = icmp samesign ult i32 %34, 5
  %or.cond = select i1 %35, i1 %36, i1 false
  br i1 %or.cond, label %37, label %83

37:                                               ; preds = %18
  tail call void (ptr, ptr, ...) @proto_item_append_text(ptr noundef %31, ptr noundef nonnull @.str.88, i32 noundef %34)
  br label %83

38:                                               ; preds = %.lr.ph
  %.not119 = icmp eq i16 %10, 2
  br i1 %.not119, label %42, label %39

39:                                               ; preds = %38
  %40 = zext nneg i16 %10 to i32
  %41 = tail call ptr (ptr, ptr, ptr, ptr, ...) @expert_add_info_format(ptr noundef %1, ptr noundef %2, ptr noundef nonnull @ei_gmhdr_field_length_invalid, ptr noundef nonnull @.str.87, i32 noundef %40)
  br label %83

42:                                               ; preds = %38
  %43 = load i32, ptr @hf_gmhdr_pktsize, align 4
  %44 = tail call ptr @proto_tree_add_item(ptr noundef %2, i32 noundef %43, ptr noundef %0, i32 noundef %8, i32 noundef 2, i32 noundef 0)
  br label %83

45:                                               ; preds = %.lr.ph, %.lr.ph, %.lr.ph, %.lr.ph
  %.not118 = icmp eq i16 %10, 8
  br i1 %.not118, label %49, label %46

46:                                               ; preds = %45
  %47 = zext nneg i16 %10 to i32
  %48 = tail call ptr (ptr, ptr, ptr, ptr, ...) @expert_add_info_format(ptr noundef %1, ptr noundef %2, ptr noundef nonnull @ei_gmhdr_field_length_invalid, ptr noundef nonnull @.str.87, i32 noundef %47)
  br label %83

49:                                               ; preds = %45
  %50 = load i32, ptr @hf_gmhdr_timestamp, align 4
  %51 = tail call ptr @proto_tree_add_item(ptr noundef %2, i32 noundef %50, ptr noundef %0, i32 noundef %8, i32 noundef 8, i32 noundef 0)
  %52 = tail call ptr @val_to_str_const(i32 noundef %12, ptr noundef nonnull @gmhdr_ftype_timestamp, ptr noundef nonnull @.str.90)
  tail call void (ptr, ptr, ...) @proto_item_append_text(ptr noundef %51, ptr noundef nonnull @.str.89, ptr noundef %52)
  br label %83

53:                                               ; preds = %.lr.ph
  %.not117 = icmp eq i16 %10, 4
  br i1 %.not117, label %57, label %54

54:                                               ; preds = %53
  %55 = zext nneg i16 %10 to i32
  %56 = tail call ptr (ptr, ptr, ptr, ptr, ...) @expert_add_info_format(ptr noundef %1, ptr noundef %2, ptr noundef nonnull @ei_gmhdr_field_length_invalid, ptr noundef nonnull @.str.87, i32 noundef %55)
  br label %83

57:                                               ; preds = %53
  %58 = load i32, ptr @hf_gmhdr_origcrc, align 4
  %59 = tail call ptr @proto_tree_add_item(ptr noundef %2, i32 noundef %58, ptr noundef %0, i32 noundef %8, i32 noundef 4, i32 noundef 0)
  tail call void (ptr, ptr, ...) @proto_item_append_text(ptr noundef %59, ptr noundef nonnull @.str.91)
  br label %83

60:                                               ; preds = %.lr.ph
  %.not = icmp eq i16 %10, 4
  br i1 %.not, label %64, label %61

61:                                               ; preds = %60
  %62 = zext nneg i16 %10 to i32
  %63 = tail call ptr (ptr, ptr, ptr, ptr, ...) @expert_add_info_format(ptr noundef %1, ptr noundef %2, ptr noundef nonnull @ei_gmhdr_field_length_invalid, ptr noundef nonnull @.str.87, i32 noundef %62)
  br label %83

64:                                               ; preds = %60
  %65 = load i32, ptr @hf_gmhdr_srcport_h, align 4
  %66 = tail call ptr @proto_tree_add_item(ptr noundef %2, i32 noundef %65, ptr noundef %0, i32 noundef %8, i32 noundef 4, i32 noundef 0)
  %67 = load i32, ptr @ett_srcport, align 4
  %68 = tail call ptr @proto_item_add_subtree(ptr noundef %66, i32 noundef %67)
  %69 = load i32, ptr @hf_gmhdr_srcport_h_plfm, align 4
  %70 = tail call ptr @proto_tree_add_item(ptr noundef %68, i32 noundef %69, ptr noundef %0, i32 noundef %8, i32 noundef 4, i32 noundef 0)
  %71 = load i32, ptr @hf_gmhdr_srcport_h_gid, align 4
  %72 = tail call ptr @proto_tree_add_item(ptr noundef %68, i32 noundef %71, ptr noundef %0, i32 noundef %8, i32 noundef 4, i32 noundef 0)
  %73 = load i32, ptr @hf_gmhdr_srcport_h_bid, align 4
  %74 = tail call ptr @proto_tree_add_item(ptr noundef %68, i32 noundef %73, ptr noundef %0, i32 noundef %8, i32 noundef 4, i32 noundef 0)
  %75 = load i32, ptr @hf_gmhdr_srcport_h_sid, align 4
  %76 = tail call ptr @proto_tree_add_item(ptr noundef %68, i32 noundef %75, ptr noundef %0, i32 noundef %8, i32 noundef 4, i32 noundef 0)
  %77 = load i32, ptr @hf_gmhdr_srcport_h_pid, align 4
  %78 = tail call ptr @proto_tree_add_item(ptr noundef %68, i32 noundef %77, ptr noundef %0, i32 noundef %8, i32 noundef 4, i32 noundef 0)
  br label %83

79:                                               ; preds = %.lr.ph
  %80 = load i32, ptr @hf_gmhdr_generic, align 4
  %81 = zext nneg i16 %10 to i32
  %82 = tail call ptr @proto_tree_add_item(ptr noundef %2, i32 noundef %80, ptr noundef %0, i32 noundef %8, i32 noundef %81, i32 noundef 0)
  tail call void (ptr, ptr, ...) @proto_item_append_text(ptr noundef %82, ptr noundef nonnull @.str.92, i32 noundef %12, i32 noundef %81)
  br label %83

83:                                               ; preds = %15, %37, %18, %79, %64, %61, %57, %54, %49, %46, %42, %39
  %84 = zext nneg i16 %10 to i32
  %85 = add i32 %8, %84
  %86 = sub i16 %9, %10
  %87 = icmp ugt i16 %86, 1
  br i1 %87, label %.lr.ph, label %._crit_edge, !llvm.loop !8

._crit_edge:                                      ; preds = %83, %5
  ret void
}